target datalayout = "e-m:e-p270:32:32-p271:32:32-p272:64:64-i64:64-i128:128-f80:128-n8:16:32:64-S128"
target triple = "x86_64-unknown-linux-gnu"

%struct.dtoa_alloc = type { i32, i32, ptr, [8 x ptr], [1 x double] }
%struct.Bigint = type { ptr, i32, i32, i32, i32, [1 x i32] }

; Function Attrs: nounwind uwtable
define internal void @dalloc_done(ptr noundef %dalloc) #0 {
entry:
  %dalloc.addr = alloca ptr, align 8
  %pmem = alloca ptr, align 8
  %pmem_end = alloca ptr, align 8
  %i = alloca i32, align 4
  %p = alloca ptr, align 8
  %tf = alloca ptr, align 8
  store ptr %dalloc, ptr %dalloc.addr, align 8
  %0 = load ptr, ptr %dalloc.addr, align 8
  %used_heap = getelementptr inbounds %struct.dtoa_alloc, ptr %0, i32 0, i32 1
  %1 = load i32, ptr %used_heap, align 4
  %tobool = icmp ne i32 %1, 0
  br i1 %tobool, label %if.end, label %if.then

if.then:                                          ; preds = %entry
  br label %for.end

if.end:                                           ; preds = %entry
  %2 = load ptr, ptr %dalloc.addr, align 8
  %private_mem = getelementptr inbounds %struct.dtoa_alloc, ptr %2, i32 0, i32 4
  %arraydecay = getelementptr inbounds [1 x double], ptr %private_mem, i64 0, i64 0
  store ptr %arraydecay, ptr %pmem, align 8
  %3 = load ptr, ptr %dalloc.addr, align 8
  %private_mem1 = getelementptr inbounds %struct.dtoa_alloc, ptr %3, i32 0, i32 4
  %arraydecay2 = getelementptr inbounds [1 x double], ptr %private_mem1, i64 0, i64 0
  %4 = load ptr, ptr %dalloc.addr, align 8
  %pmem_len = getelementptr inbounds %struct.dtoa_alloc, ptr %4, i32 0, i32 0
  %5 = load i32, ptr %pmem_len, align 8
  %idx.ext = sext i32 %5 to i64
  %add.ptr = getelementptr inbounds double, ptr %arraydecay2, i64 %idx.ext
  store ptr %add.ptr, ptr %pmem_end, align 8
  store i32 0, ptr %i, align 4
  br label %for.cond

for.cond:                                         ; preds = %for.inc, %if.end
  %6 = load i32, ptr %i, align 4
  %cmp = icmp slt i32 %6, 8
  br i1 %cmp, label %for.body, label %for.end

for.body:                                         ; preds = %for.cond
  %7 = load ptr, ptr %dalloc.addr, align 8
  %freelist = getelementptr inbounds %struct.dtoa_alloc, ptr %7, i32 0, i32 3
  %8 = load i32, ptr %i, align 4
  %idxprom = sext i32 %8 to i64
  %arrayidx = getelementptr inbounds [8 x ptr], ptr %freelist, i64 0, i64 %idxprom
  %9 = load ptr, ptr %arrayidx, align 8
  store ptr %9, ptr %p, align 8
  br label %while.cond

while.cond:                                       ; preds = %if.end7, %if.then6, %for.body
  %10 = load ptr, ptr %p, align 8
  %tobool3 = icmp ne ptr %10, null
  br i1 %tobool3, label %while.body, label %while.end

while.body:                                       ; preds = %while.cond
  %11 = load ptr, ptr %p, align 8
  store ptr %11, ptr %tf, align 8
  %12 = load ptr, ptr %p, align 8
  %next = getelementptr inbounds %struct.Bigint, ptr %12, i32 0, i32 0
  %13 = load ptr, ptr %next, align 8
  store ptr %13, ptr %p, align 8
  %14 = load ptr, ptr %tf, align 8
  %15 = load ptr, ptr %pmem, align 8
  %cmp4 = icmp uge ptr %14, %15
  br i1 %cmp4, label %land.lhs.true, label %if.end7

land.lhs.true:                                    ; preds = %while.body
  %16 = load ptr, ptr %tf, align 8
  %17 = load ptr, ptr %pmem_end, align 8
  %cmp5 = icmp ult ptr %16, %17
  br i1 %cmp5, label %if.then6, label %if.end7

if.then6:                                         ; preds = %land.lhs.true
  br label %while.cond, !llvm.loop !4

if.end7:                                          ; preds = %land.lhs.true, %while.body
  %18 = load ptr, ptr %tf, align 8
  call void @free(ptr noundef %18) #9
  br label %while.cond, !llvm.loop !4

while.end:                                        ; preds = %while.cond
  br label %for.inc

for.inc:                                          ; preds = %while.end
  %19 = load i32, ptr %i, align 4
  %inc = add nsw i32 %19, 1
  store i32 %inc, ptr %i, align 4
  br label %for.cond, !llvm.loop !6

for.end:                                          ; preds = %for.cond, %if.then
  ret void
}

; Function Attrs: nounwind uwtable
define hidden void @dtoa_alloc_done(ptr noundef %dalloc) #0 {
entry:
  %dalloc.addr = alloca ptr, align 8
  store ptr %dalloc, ptr %dalloc.addr, align 8
  %0 = load ptr, ptr %dalloc.addr, align 8
  call void @dalloc_done(ptr noundef %0)
  ret void
}