; Function Attrs: nounwind uwtable
define hidden void @dtoa_alloc_done(ptr noundef readonly %dalloc) local_unnamed_addr #1 {
entry:
  %used_heap.i = getelementptr inbounds nuw i8, ptr %dalloc, i64 4
  %0 = load i32, ptr %used_heap.i, align 4
  %tobool.not.i = icmp eq i32 %0, 0
  br i1 %tobool.not.i, label %dalloc_done.exit, label %if.end.i

if.end.i:                                         ; preds = %entry
  %private_mem.i = getelementptr inbounds nuw i8, ptr %dalloc, i64 80
  %1 = load i32, ptr %dalloc, align 8
  %idx.ext.i = sext i32 %1 to i64
  %add.ptr.i = getelementptr inbounds double, ptr %private_mem.i, i64 %idx.ext.i
  %freelist.i = getelementptr inbounds nuw i8, ptr %dalloc, i64 16
  br label %for.body.i

for.body.i:                                       ; preds = %for.inc.i, %if.end.i
  %indvars.iv.i = phi i64 [ 0, %if.end.i ], [ %indvars.iv.next.i, %for.inc.i ]
  %arrayidx.i = getelementptr inbounds nuw [8 x ptr], ptr %freelist.i, i64 0, i64 %indvars.iv.i
  %2 = load ptr, ptr %arrayidx.i, align 8
  %tobool3.not11.i = icmp eq ptr %2, null
  br i1 %tobool3.not11.i, label %for.inc.i, label %while.body.i

while.body.i:                                     ; preds = %for.body.i, %while.cond.backedge.i
  %p.012.i = phi ptr [ %3, %while.cond.backedge.i ], [ %2, %for.body.i ]
  %3 = load ptr, ptr %p.012.i, align 8
  %cmp4.not.i = icmp uge ptr %p.012.i, %private_mem.i
  %cmp5.i = icmp ult ptr %p.012.i, %add.ptr.i
  %or.cond.i = select i1 %cmp4.not.i, i1 %cmp5.i, i1 false
  br i1 %or.cond.i, label %while.cond.backedge.i, label %if.end7.i

if.end7.i:                                        ; preds = %while.body.i
  tail call void @free(ptr noundef nonnull %p.012.i) #17
  br label %while.cond.backedge.i

while.cond.backedge.i:                            ; preds = %if.end7.i, %while.body.i
  %tobool3.not.i = icmp eq ptr %3, null
  br i1 %tobool3.not.i, label %for.inc.i, label %while.body.i, !llvm.loop !4

for.inc.i:                                        ; preds = %while.cond.backedge.i, %for.body.i
  %indvars.iv.next.i = add nuw nsw i64 %indvars.iv.i, 1
  %exitcond.not.i = icmp eq i64 %indvars.iv.next.i, 8
  br i1 %exitcond.not.i, label %dalloc_done.exit, label %for.body.i, !llvm.loop !6

dalloc_done.exit:                                 ; preds = %for.inc.i, %entry
  ret void
}